; Function Attrs: nofree norecurse nosync nounwind memory(argmem: readwrite) uwtable
define internal void @blend_normal_8bit(ptr noundef readonly captures(none) %0, i64 noundef %1, ptr noundef readonly captures(none) %2, i64 noundef %3, ptr noundef writeonly captures(none) %4, i64 noundef %5, i64 noundef %6, i64 noundef %7, ptr noundef readonly captures(none) %8, ptr readnone captures(none) %9) #6 {
  %11 = getelementptr inbounds nuw i8, ptr %8, i64 8
  %12 = load double, ptr %11, align 8, !tbaa !70
  %13 = fptrunc nsz double %12 to float
  %14 = icmp sgt i64 %7, 0
  br i1 %14, label %.preheader.lr.ph, label %._crit_edge36

.preheader.lr.ph:                                 ; preds = %10
  %15 = icmp sgt i64 %6, 0
  %16 = fsub nsz float 1.000000e+00, %13
  br i1 %15, label %.preheader.us, label %._crit_edge36

.preheader.us:                                    ; preds = %.preheader.lr.ph, %._crit_edge.us
  %indvars.iv40 = phi i64 [ %indvars.iv.next41, %._crit_edge.us ], [ 0, %.preheader.lr.ph ]
  %.02734.us = phi ptr [ %28, %._crit_edge.us ], [ %4, %.preheader.lr.ph ]
  %.02833.us = phi ptr [ %30, %._crit_edge.us ], [ %2, %.preheader.lr.ph ]
  %.02932.us = phi ptr [ %29, %._crit_edge.us ], [ %0, %.preheader.lr.ph ]
  br label %17

17:                                               ; preds = %.preheader.us, %17
  %indvars.iv = phi i64 [ 0, %.preheader.us ], [ %indvars.iv.next, %17 ]
  %18 = getelementptr inbounds nuw i8, ptr %.02932.us, i64 %indvars.iv
  %19 = load i8, ptr %18, align 1, !tbaa !89
  %20 = uitofp i8 %19 to float
  %21 = getelementptr inbounds nuw i8, ptr %.02833.us, i64 %indvars.iv
  %22 = load i8, ptr %21, align 1, !tbaa !89
  %23 = uitofp i8 %22 to float
  %24 = fmul nsz float %16, %23
  %25 = tail call nsz float @llvm.fmuladd.f32(float %20, float %13, float %24)
  %26 = fptoui float %25 to i8
  %27 = getelementptr inbounds nuw i8, ptr %.02734.us, i64 %indvars.iv
  store i8 %26, ptr %27, align 1, !tbaa !89
  %indvars.iv.next = add nuw nsw i64 %indvars.iv, 1
  %exitcond.not = icmp eq i64 %indvars.iv.next, %6
  br i1 %exitcond.not, label %._crit_edge.us, label %17, !llvm.loop !136

._crit_edge.us:                                   ; preds = %17
  %28 = getelementptr inbounds i8, ptr %.02734.us, i64 %5
  %29 = getelementptr inbounds i8, ptr %.02932.us, i64 %1
  %30 = getelementptr inbounds i8, ptr %.02833.us, i64 %3
  %indvars.iv.next41 = add nuw nsw i64 %indvars.iv40, 1
  %exitcond43.not = icmp eq i64 %indvars.iv.next41, %7
  br i1 %exitcond43.not, label %._crit_edge36, label %.preheader.us, !llvm.loop !137

._crit_edge36:                                    ; preds = %._crit_edge.us, %.preheader.lr.ph, %10
  ret void
}